target datalayout = "e-m:e-p270:32:32-p271:32:32-p272:64:64-i64:64-i128:128-f80:128-n8:16:32:64-S128"
target triple = "x86_64-pc-linux-gnu"

%struct.ossl_record_layer_st = type { ptr, ptr, i32, i32, i32, i32, i32, ptr, i16, ptr, ptr, ptr, i64, i32, [33 x %struct.tls_buffer_st], i64, i64, %struct.tls_buffer_st, [32 x %struct.tls_rl_record_st], i64, i64, i64, i32, ptr, i64, [8 x i8], i32, i32, i64, i32, ptr, ptr, i64, ptr, ptr, i32, i32, i32, i64, i64, i64, [64 x i8], i32, i32, i32, ptr, ptr, i32, i32, i64, ptr, ptr, %struct.dtls_bitmap_st, %struct.dtls_bitmap_st, i32, ptr, ptr, ptr, ptr, ptr, i64, ptr }
%struct.tls_buffer_st = type { ptr, i64, i64, i64, i64, i32, i32 }
%struct.tls_rl_record_st = type { i32, i32, i64, i64, i64, ptr, ptr, ptr, i16, [8 x i8] }
%struct.dtls_bitmap_st = type { i64, [8 x i8] }

; Function Attrs: nounwind uwtable
define internal i32 @tls_is_multiblock_capable(ptr noundef %0, i8 noundef zeroext %1, i64 noundef %2, i64 noundef %3) #0 {
  %5 = alloca i32, align 4
  %6 = alloca ptr, align 8
  %7 = alloca i8, align 1
  %8 = alloca i64, align 8
  %9 = alloca i64, align 8
  store ptr %0, ptr %6, align 8, !tbaa !3
  store i8 %1, ptr %7, align 1, !tbaa !8
  store i64 %2, ptr %8, align 8, !tbaa !9
  store i64 %3, ptr %9, align 8, !tbaa !9
  %10 = load i8, ptr %7, align 1, !tbaa !8
  %11 = zext i8 %10 to i32
  %12 = icmp eq i32 %11, 23
  br i1 %12, label %13, label %67

13:                                               ; preds = %4
  %14 = load i64, ptr %8, align 8, !tbaa !9
  %15 = load i64, ptr %9, align 8, !tbaa !9
  %16 = mul i64 4, %15
  %17 = icmp uge i64 %14, %16
  br i1 %17, label %18, label %67

18:                                               ; preds = %13
  %19 = load ptr, ptr %6, align 8, !tbaa !3
  %20 = getelementptr inbounds nuw %struct.ossl_record_layer_st, ptr %19, i32 0, i32 34
  %21 = load ptr, ptr %20, align 8, !tbaa !13
  %22 = icmp eq ptr %21, null
  br i1 %22, label %23, label %67

23:                                               ; preds = %18
  %24 = load ptr, ptr %6, align 8, !tbaa !3
  %25 = getelementptr inbounds nuw %struct.ossl_record_layer_st, ptr %24, i32 0, i32 57
  %26 = load ptr, ptr %25, align 8, !tbaa !29
  %27 = icmp eq ptr %26, null
  br i1 %27, label %28, label %67

28:                                               ; preds = %23
  %29 = load ptr, ptr %6, align 8, !tbaa !3
  %30 = getelementptr inbounds nuw %struct.ossl_record_layer_st, ptr %29, i32 0, i32 42
  %31 = load i32, ptr %30, align 8, !tbaa !30
  %32 = icmp ne i32 %31, 0
  br i1 %32, label %67, label %33

33:                                               ; preds = %28
  %34 = load ptr, ptr %6, align 8, !tbaa !3
  %35 = getelementptr inbounds nuw %struct.ossl_record_layer_st, ptr %34, i32 0, i32 3
  %36 = load i32, ptr %35, align 4, !tbaa !31
  %37 = icmp eq i32 %36, 770
  br i1 %37, label %58, label %38

38:                                               ; preds = %33
  %39 = load ptr, ptr %6, align 8, !tbaa !3
  %40 = getelementptr inbounds nuw %struct.ossl_record_layer_st, ptr %39, i32 0, i32 3
  %41 = load i32, ptr %40, align 4, !tbaa !31
  %42 = icmp eq i32 %41, 771
  br i1 %42, label %58, label %43

43:                                               ; preds = %38
  %44 = load ptr, ptr %6, align 8, !tbaa !3
  %45 = getelementptr inbounds nuw %struct.ossl_record_layer_st, ptr %44, i32 0, i32 3
  %46 = load i32, ptr %45, align 4, !tbaa !31
  %47 = icmp eq i32 %46, 256
  br i1 %47, label %58, label %48

48:                                               ; preds = %43
  %49 = load ptr, ptr %6, align 8, !tbaa !3
  %50 = getelementptr inbounds nuw %struct.ossl_record_layer_st, ptr %49, i32 0, i32 3
  %51 = load i32, ptr %50, align 4, !tbaa !31
  %52 = icmp eq i32 %51, 65279
  br i1 %52, label %58, label %53

53:                                               ; preds = %48
  %54 = load ptr, ptr %6, align 8, !tbaa !3
  %55 = getelementptr inbounds nuw %struct.ossl_record_layer_st, ptr %54, i32 0, i32 3
  %56 = load i32, ptr %55, align 4, !tbaa !31
  %57 = icmp eq i32 %56, 65277
  br i1 %57, label %58, label %67

58:                                               ; preds = %53, %48, %43, %38, %33
  %59 = load ptr, ptr %6, align 8, !tbaa !3
  %60 = getelementptr inbounds nuw %struct.ossl_record_layer_st, ptr %59, i32 0, i32 30
  %61 = load ptr, ptr %60, align 8, !tbaa !32
  %62 = call ptr @EVP_CIPHER_CTX_get0_cipher(ptr noundef %61)
  %63 = call i64 @EVP_CIPHER_get_flags(ptr noundef %62)
  %64 = and i64 %63, 4194304
  %65 = icmp ne i64 %64, 0
  br i1 %65, label %66, label %67

66:                                               ; preds = %58
  store i32 1, ptr %5, align 4
  br label %68

67:                                               ; preds = %58, %53, %28, %23, %18, %13, %4
  store i32 0, ptr %5, align 4
  br label %68

68:                                               ; preds = %67, %66
  %69 = load i32, ptr %5, align 4
  ret i32 %69
}

; Function Attrs: nounwind uwtable
define i64 @tls_get_max_records_multiblock(ptr noundef %0, i8 noundef zeroext %1, i64 noundef %2, i64 noundef %3, ptr noundef %4) #0 {
  %6 = alloca i64, align 8
  %7 = alloca ptr, align 8
  %8 = alloca i8, align 1
  %9 = alloca i64, align 8
  %10 = alloca i64, align 8
  %11 = alloca ptr, align 8
  store ptr %0, ptr %7, align 8, !tbaa !3
  store i8 %1, ptr %8, align 1, !tbaa !8
  store i64 %2, ptr %9, align 8, !tbaa !9
  store i64 %3, ptr %10, align 8, !tbaa !9
  store ptr %4, ptr %11, align 8, !tbaa !11
  %12 = load ptr, ptr %7, align 8, !tbaa !3
  %13 = load i8, ptr %8, align 1, !tbaa !8
  %14 = load i64, ptr %9, align 8, !tbaa !9
  %15 = load ptr, ptr %11, align 8, !tbaa !11
  %16 = load i64, ptr %15, align 8, !tbaa !9
  %17 = call i32 @tls_is_multiblock_capable(ptr noundef %12, i8 noundef zeroext %13, i64 noundef %14, i64 noundef %16)
  %18 = icmp ne i32 %17, 0
  br i1 %18, label %19, label %36

19:                                               ; preds = %5
  %20 = load ptr, ptr %11, align 8, !tbaa !11
  %21 = load i64, ptr %20, align 8, !tbaa !9
  %22 = and i64 %21, 4095
  %23 = icmp eq i64 %22, 0
  br i1 %23, label %24, label %28

24:                                               ; preds = %19
  %25 = load ptr, ptr %11, align 8, !tbaa !11
  %26 = load i64, ptr %25, align 8, !tbaa !9
  %27 = sub i64 %26, 512
  store i64 %27, ptr %25, align 8, !tbaa !9
  br label %28

28:                                               ; preds = %24, %19
  %29 = load i64, ptr %9, align 8, !tbaa !9
  %30 = load ptr, ptr %11, align 8, !tbaa !11
  %31 = load i64, ptr %30, align 8, !tbaa !9
  %32 = mul i64 8, %31
  %33 = icmp uge i64 %29, %32
  br i1 %33, label %34, label %35

34:                                               ; preds = %28
  store i64 8, ptr %6, align 8
  br label %43

35:                                               ; preds = %28
  store i64 4, ptr %6, align 8
  br label %43

36:                                               ; preds = %5
  %37 = load ptr, ptr %7, align 8, !tbaa !3
  %38 = load i8, ptr %8, align 1, !tbaa !8
  %39 = load i64, ptr %9, align 8, !tbaa !9
  %40 = load i64, ptr %10, align 8, !tbaa !9
  %41 = load ptr, ptr %11, align 8, !tbaa !11
  %42 = call i64 @tls_get_max_records_default(ptr noundef %37, i8 noundef zeroext %38, i64 noundef %39, i64 noundef %40, ptr noundef %41)
  store i64 %42, ptr %6, align 8
  br label %43

43:                                               ; preds = %36, %35, %34
  %44 = load i64, ptr %6, align 8
  ret i64 %44
}