; Function Attrs: nounwind uwtable
define i64 @tls_get_max_records_multiblock(ptr noundef %0, i8 noundef zeroext %1, i64 noundef %2, i64 noundef %3, ptr noundef %4) local_unnamed_addr #0 {
  %6 = load i64, ptr %4, align 8, !tbaa !3
  %7 = icmp ne i8 %1, 23
  %8 = shl i64 %6, 2
  %.not.i = icmp ult i64 %2, %8
  %or.cond.i = or i1 %7, %.not.i
  br i1 %or.cond.i, label %37, label %9

9:                                                ; preds = %5
  %10 = getelementptr inbounds nuw i8, ptr %0, i64 4160
  %11 = load ptr, ptr %10, align 8, !tbaa !7
  %12 = icmp eq ptr %11, null
  br i1 %12, label %13, label %37

13:                                               ; preds = %9
  %14 = getelementptr inbounds nuw i8, ptr %0, i64 4392
  %15 = load ptr, ptr %14, align 8, !tbaa !24
  %16 = icmp eq ptr %15, null
  br i1 %16, label %17, label %37

17:                                               ; preds = %13
  %18 = getelementptr inbounds nuw i8, ptr %0, i64 4272
  %19 = load i32, ptr %18, align 8, !tbaa !25
  %.not13.i = icmp eq i32 %19, 0
  br i1 %.not13.i, label %20, label %37

20:                                               ; preds = %17
  %21 = getelementptr inbounds nuw i8, ptr %0, i64 20
  %22 = load i32, ptr %21, align 4, !tbaa !26
  switch i32 %22, label %37 [
    i32 770, label %23
    i32 771, label %23
    i32 256, label %23
    i32 65279, label %23
    i32 65277, label %23
  ]

23:                                               ; preds = %20, %20, %20, %20, %20
  %24 = getelementptr inbounds nuw i8, ptr %0, i64 4128
  %25 = load ptr, ptr %24, align 8, !tbaa !27
  %26 = tail call ptr @EVP_CIPHER_CTX_get0_cipher(ptr noundef %25) #3
  %27 = tail call i64 @EVP_CIPHER_get_flags(ptr noundef %26) #3
  %28 = and i64 %27, 4194304
  %.not14.i = icmp eq i64 %28, 0
  br i1 %.not14.i, label %37, label %tls_is_multiblock_capable.exit

tls_is_multiblock_capable.exit:                   ; preds = %23
  %29 = load i64, ptr %4, align 8, !tbaa !3
  %30 = and i64 %29, 4095
  %31 = icmp eq i64 %30, 0
  br i1 %31, label %32, label %34

32:                                               ; preds = %tls_is_multiblock_capable.exit
  %33 = add i64 %29, -512
  store i64 %33, ptr %4, align 8, !tbaa !3
  br label %34

34:                                               ; preds = %32, %tls_is_multiblock_capable.exit
  %35 = phi i64 [ %33, %32 ], [ %29, %tls_is_multiblock_capable.exit ]
  %36 = shl i64 %35, 3
  %.not13 = icmp ult i64 %2, %36
  %. = select i1 %.not13, i64 4, i64 8
  br label %39

37:                                               ; preds = %5, %9, %13, %17, %20, %23
  %38 = tail call i64 @tls_get_max_records_default(ptr noundef %0, i8 noundef zeroext %1, i64 noundef %2, i64 noundef %3, ptr noundef nonnull %4) #3
  br label %39

39:                                               ; preds = %34, %37
  %.0 = phi i64 [ %38, %37 ], [ %., %34 ]
  ret i64 %.0
}